target datalayout = "e-m:e-p270:32:32-p271:32:32-p272:64:64-i64:64-i128:128-f80:128-n8:16:32:64-S128"
target triple = "x86_64-pc-linux-gnu"

%"class.cvc5::internal::NodeTemplate" = type { ptr }
%"class.cvc5::internal::NodeDfsIterator" = type { %"class.std::vector", %"class.std::unordered_map", i32, %"class.cvc5::internal::NodeTemplate", %"class.std::function" }
%"class.std::vector" = type { %"struct.std::_Vector_base" }
%"struct.std::_Vector_base" = type { %"struct.std::_Vector_base<cvc5::internal::NodeTemplate<false>, std::allocator<cvc5::internal::NodeTemplate<false>>>::_Vector_impl" }
%"struct.std::_Vector_base<cvc5::internal::NodeTemplate<false>, std::allocator<cvc5::internal::NodeTemplate<false>>>::_Vector_impl" = type { %"struct.std::_Vector_base<cvc5::internal::NodeTemplate<false>, std::allocator<cvc5::internal::NodeTemplate<false>>>::_Vector_impl_data" }
%"struct.std::_Vector_base<cvc5::internal::NodeTemplate<false>, std::allocator<cvc5::internal::NodeTemplate<false>>>::_Vector_impl_data" = type { ptr, ptr, ptr }
%"class.std::unordered_map" = type { %"class.std::_Hashtable" }
%"class.std::_Hashtable" = type { ptr, i64, %"struct.std::__detail::_Hash_node_base", i64, %"struct.std::__detail::_Prime_rehash_policy", ptr }
%"struct.std::__detail::_Hash_node_base" = type { ptr }
%"struct.std::__detail::_Prime_rehash_policy" = type { float, i64 }
%"class.std::function" = type { %"class.std::_Function_base", ptr }
%"class.std::_Function_base" = type { %"union.std::_Any_data", ptr }
%"union.std::_Any_data" = type { %"union.std::_Nocopy_types" }
%"union.std::_Nocopy_types" = type { { i64, i64 } }
%"class.cvc5::internal::expr::NodeValue" = type { i64, i64, ptr, [0 x ptr] }

@_ZZN4cvc58internal4expr9NodeValue4nullEvE6s_null = linkonce_odr global ptr null, comdat, align 8
@_ZGVZN4cvc58internal4expr9NodeValue4nullEvE6s_null = linkonce_odr global i64 0, comdat, align 8

; Function Attrs: inlinehint mustprogress nounwind uwtable
define linkonce_odr hidden void @_ZN4cvc58internal4expr9NodeValueC2Ei(ptr noundef nonnull align 8 dereferenceable(24) %0, i32 noundef %1) unnamed_addr #8 comdat align 2 {
  %3 = alloca ptr, align 8
  %4 = alloca i32, align 4
  store ptr %0, ptr %3, align 8, !tbaa !153
  store i32 %1, ptr %4, align 4, !tbaa !59
  %5 = load ptr, ptr %3, align 8
  %6 = load i64, ptr %5, align 8
  %7 = and i64 %6, -1099511627776
  %8 = or i64 %7, 0
  store i64 %8, ptr %5, align 8
  %9 = load i64, ptr %5, align 8
  %10 = and i64 %9, -1152920405095219201
  %11 = or i64 %10, 1152920405095219200
  store i64 %11, ptr %5, align 8
  %12 = getelementptr inbounds nuw %"class.cvc5::internal::expr::NodeValue", ptr %5, i32 0, i32 1
  %13 = load i64, ptr %12, align 8
  %14 = and i64 %13, -1024
  %15 = or i64 %14, 0
  store i64 %15, ptr %12, align 8
  %16 = getelementptr inbounds nuw %"class.cvc5::internal::expr::NodeValue", ptr %5, i32 0, i32 1
  %17 = load i64, ptr %16, align 8
  %18 = and i64 %17, -288230371856744449
  %19 = or i64 %18, 0
  store i64 %19, ptr %16, align 8
  %20 = getelementptr inbounds nuw %"class.cvc5::internal::expr::NodeValue", ptr %5, i32 0, i32 2
  store ptr null, ptr %20, align 8, !tbaa !154
  ret void
}

; Function Attrs: inlinehint mustprogress uwtable
define linkonce_odr hidden noundef nonnull align 8 dereferenceable(24) ptr @_ZN4cvc58internal4expr9NodeValue4nullEv() #9 comdat align 2 personality ptr @__gxx_personality_v0 {
  %1 = alloca ptr, align 8
  %2 = alloca i32, align 4
  %3 = load atomic i8, ptr @_ZGVZN4cvc58internal4expr9NodeValue4nullEvE6s_null acquire, align 8
  %4 = icmp eq i8 %3, 0
  br i1 %4, label %5, label %12, !prof !152

5:                                                ; preds = %0
  %6 = call i32 @__cxa_guard_acquire(ptr @_ZGVZN4cvc58internal4expr9NodeValue4nullEvE6s_null) #3
  %7 = icmp ne i32 %6, 0
  br i1 %7, label %8, label %12

8:                                                ; preds = %5
  %9 = invoke noalias noundef nonnull ptr @_Znwm(i64 noundef 24) #19
          to label %10 unwind label %14

10:                                               ; preds = %8
  invoke void @_ZN4cvc58internal4expr9NodeValueC2Ei(ptr noundef nonnull align 8 dereferenceable(24) %9, i32 noundef 0)
          to label %11 unwind label %18

11:                                               ; preds = %10
  store ptr %9, ptr @_ZZN4cvc58internal4expr9NodeValue4nullEvE6s_null, align 8, !tbaa !153
  call void @__cxa_guard_release(ptr @_ZGVZN4cvc58internal4expr9NodeValue4nullEvE6s_null) #3
  br label %12

12:                                               ; preds = %11, %5, %0
  %13 = load ptr, ptr @_ZZN4cvc58internal4expr9NodeValue4nullEvE6s_null, align 8, !tbaa !153
  ret ptr %13

14:                                               ; preds = %8
  %15 = landingpad { ptr, i32 }
          cleanup
  %16 = extractvalue { ptr, i32 } %15, 0
  store ptr %16, ptr %1, align 8
  %17 = extractvalue { ptr, i32 } %15, 1
  store i32 %17, ptr %2, align 4
  br label %22

18:                                               ; preds = %10
  %19 = landingpad { ptr, i32 }
          cleanup
  %20 = extractvalue { ptr, i32 } %19, 0
  store ptr %20, ptr %1, align 8
  %21 = extractvalue { ptr, i32 } %19, 1
  store i32 %21, ptr %2, align 4
  call void @_ZdlPvm(ptr noundef %9, i64 noundef 24) #18
  br label %22

22:                                               ; preds = %18, %14
  call void @__cxa_guard_abort(ptr @_ZGVZN4cvc58internal4expr9NodeValue4nullEvE6s_null) #3
  br label %23

23:                                               ; preds = %22
  %24 = load ptr, ptr %1, align 8
  %25 = load i32, ptr %2, align 4
  %26 = insertvalue { ptr, i32 } poison, ptr %24, 0
  %27 = insertvalue { ptr, i32 } %26, i32 %25, 1
  resume { ptr, i32 } %27
}

; Function Attrs: inlinehint mustprogress nounwind uwtable
define linkonce_odr hidden void @_ZNK4cvc58internal12NodeTemplateILb0EE21assertTNodeNotExpiredEv(ptr noundef nonnull align 8 dereferenceable(8) %0) #8 comdat align 2 {
  %2 = alloca ptr, align 8
  store ptr %0, ptr %2, align 8, !tbaa !8
  ret void
}

; Function Attrs: mustprogress uwtable
define linkonce_odr hidden noundef zeroext i1 @_ZNK4cvc58internal12NodeTemplateILb0EE6isNullEv(ptr noundef nonnull align 8 dereferenceable(8) %0) #4 comdat align 2 {
  %2 = alloca ptr, align 8
  store ptr %0, ptr %2, align 8, !tbaa !8
  %3 = load ptr, ptr %2, align 8
  call void @_ZNK4cvc58internal12NodeTemplateILb0EE21assertTNodeNotExpiredEv(ptr noundef nonnull align 8 dereferenceable(8) %3)
  %4 = getelementptr inbounds nuw %"class.cvc5::internal::NodeTemplate", ptr %3, i32 0, i32 0
  %5 = load ptr, ptr %4, align 8, !tbaa !35
  %6 = call noundef nonnull align 8 dereferenceable(24) ptr @_ZN4cvc58internal4expr9NodeValue4nullEv()
  %7 = icmp eq ptr %5, %6
  ret i1 %7
}

; Function Attrs: mustprogress uwtable
define hidden void @_ZN4cvc58internal15NodeDfsIterator25initializeIfUninitializedEv(ptr noundef nonnull align 8 dereferenceable(128) %0) #4 align 2 {
  %2 = alloca ptr, align 8
  store ptr %0, ptr %2, align 8, !tbaa !3
  %3 = load ptr, ptr %2, align 8
  %4 = getelementptr inbounds nuw %"class.cvc5::internal::NodeDfsIterator", ptr %3, i32 0, i32 3
  %5 = call noundef zeroext i1 @_ZNK4cvc58internal12NodeTemplateILb0EE6isNullEv(ptr noundef nonnull align 8 dereferenceable(8) %4)
  br i1 %5, label %6, label %7

6:                                                ; preds = %1
  call void @_ZN4cvc58internal15NodeDfsIterator18advanceToNextVisitEv(ptr noundef nonnull align 8 dereferenceable(128) %3)
  br label %7

7:                                                ; preds = %6, %1
  ret void
}

; Function Attrs: mustprogress uwtable
define hidden noundef nonnull align 8 dereferenceable(8) ptr @_ZN4cvc58internal15NodeDfsIteratordeEv(ptr noundef nonnull align 8 dereferenceable(128) %0) #4 align 2 {
  %2 = alloca ptr, align 8
  store ptr %0, ptr %2, align 8, !tbaa !3
  %3 = load ptr, ptr %2, align 8
  call void @_ZN4cvc58internal15NodeDfsIterator25initializeIfUninitializedEv(ptr noundef nonnull align 8 dereferenceable(128) %3)
  %4 = getelementptr inbounds nuw %"class.cvc5::internal::NodeDfsIterator", ptr %3, i32 0, i32 3
  ret ptr %4
}