; Function Attrs: mustprogress uwtable
define hidden noundef nonnull align 8 dereferenceable(8) ptr @_ZN4cvc58internal15NodeDfsIteratordeEv(ptr noundef nonnull align 8 dereferenceable(128) %0) local_unnamed_addr #3 align 2 personality ptr @__gxx_personality_v0 {
  %2 = getelementptr inbounds nuw i8, ptr %0, i64 88
  %3 = load ptr, ptr %2, align 8, !tbaa !3
  %4 = load atomic i8, ptr @_ZGVZN4cvc58internal4expr9NodeValue4nullEvE6s_null acquire, align 8
  %5 = icmp eq i8 %4, 0
  br i1 %5, label %6, label %_ZNK4cvc58internal12NodeTemplateILb0EE6isNullEv.exit.i, !prof !33

6:                                                ; preds = %1
  %7 = tail call i32 @__cxa_guard_acquire(ptr nonnull @_ZGVZN4cvc58internal4expr9NodeValue4nullEvE6s_null) #20
  %.not.i.i.i = icmp eq i32 %7, 0
  br i1 %.not.i.i.i, label %_ZNK4cvc58internal12NodeTemplateILb0EE6isNullEv.exit.i, label %8

8:                                                ; preds = %6
  %9 = invoke noalias noundef nonnull dereferenceable(24) ptr @_Znwm(i64 noundef 24) #19
          to label %10 unwind label %12

10:                                               ; preds = %8
  store i64 1152920405095219200, ptr %9, align 8
  %11 = getelementptr inbounds nuw i8, ptr %9, i64 8
  tail call void @llvm.memset.p0.i64(ptr noundef nonnull align 8 dereferenceable(16) %11, i8 0, i64 16, i1 false)
  store ptr %9, ptr @_ZZN4cvc58internal4expr9NodeValue4nullEvE6s_null, align 8, !tbaa !34
  tail call void @__cxa_guard_release(ptr nonnull @_ZGVZN4cvc58internal4expr9NodeValue4nullEvE6s_null) #20
  br label %_ZNK4cvc58internal12NodeTemplateILb0EE6isNullEv.exit.i

12:                                               ; preds = %8
  %13 = landingpad { ptr, i32 }
          cleanup
  tail call void @__cxa_guard_abort(ptr nonnull @_ZGVZN4cvc58internal4expr9NodeValue4nullEvE6s_null) #20
  resume { ptr, i32 } %13

_ZNK4cvc58internal12NodeTemplateILb0EE6isNullEv.exit.i: ; preds = %10, %6, %1
  %14 = load ptr, ptr @_ZZN4cvc58internal4expr9NodeValue4nullEvE6s_null, align 8, !tbaa !34
  %15 = icmp eq ptr %3, %14
  br i1 %15, label %16, label %_ZN4cvc58internal15NodeDfsIterator25initializeIfUninitializedEv.exit

16:                                               ; preds = %_ZNK4cvc58internal12NodeTemplateILb0EE6isNullEv.exit.i
  tail call void @_ZN4cvc58internal15NodeDfsIterator18advanceToNextVisitEv(ptr noundef nonnull align 8 dereferenceable(128) %0)
  br label %_ZN4cvc58internal15NodeDfsIterator25initializeIfUninitializedEv.exit

_ZN4cvc58internal15NodeDfsIterator25initializeIfUninitializedEv.exit: ; preds = %_ZNK4cvc58internal12NodeTemplateILb0EE6isNullEv.exit.i, %16
  ret ptr %2
}